target datalayout = "e-m:e-p270:32:32-p271:32:32-p272:64:64-i64:64-i128:128-f80:128-n8:16:32:64-S128"
target triple = "x86_64-pc-linux-gnu"

%struct.jv = type { i8, i8, i16, i32, %union.anon }
%union.anon = type { ptr }

; Function Attrs: nounwind uwtable
define dso_local { i64, ptr } @jv_keys(i64 %0, ptr %1) #0 {
  %3 = alloca %struct.jv, align 8
  %4 = alloca %struct.jv, align 8
  %5 = alloca i32, align 4
  %6 = alloca %struct.jv, align 8
  %7 = alloca ptr, align 8
  %8 = alloca i32, align 4
  %9 = alloca i32, align 4
  %10 = alloca i32, align 4
  %11 = alloca i32, align 4
  %12 = alloca %struct.jv, align 8
  %13 = alloca %struct.jv, align 8
  %14 = alloca %struct.jv, align 8
  %15 = alloca i1, align 1
  %16 = alloca %struct.jv, align 8
  %17 = alloca i1, align 1
  %18 = alloca i32, align 4
  %19 = alloca %struct.jv, align 8
  %20 = alloca i32, align 4
  %21 = alloca i32, align 4
  %22 = alloca %struct.jv, align 8
  %23 = alloca %struct.jv, align 8
  %24 = getelementptr inbounds nuw { i64, ptr }, ptr %4, i32 0, i32 0
  store i64 %0, ptr %24, align 8
  %25 = getelementptr inbounds nuw { i64, ptr }, ptr %4, i32 0, i32 1
  store ptr %1, ptr %25, align 8
  %26 = getelementptr inbounds nuw { i64, ptr }, ptr %4, i32 0, i32 0
  %27 = load i64, ptr %26, align 8
  %28 = getelementptr inbounds nuw { i64, ptr }, ptr %4, i32 0, i32 1
  %29 = load ptr, ptr %28, align 8
  %30 = call i32 @jv_get_kind(i64 %27, ptr %29)
  %31 = icmp eq i32 %30, 7
  br i1 %31, label %32, label %155

32:                                               ; preds = %2
  call void @llvm.lifetime.start.p0(i64 4, ptr %5) #6
  %33 = getelementptr inbounds nuw { i64, ptr }, ptr %4, i32 0, i32 0
  %34 = load i64, ptr %33, align 8
  %35 = getelementptr inbounds nuw { i64, ptr }, ptr %4, i32 0, i32 1
  %36 = load ptr, ptr %35, align 8
  %37 = call { i64, ptr } @jv_copy(i64 %34, ptr %36)
  %38 = getelementptr inbounds nuw { i64, ptr }, ptr %6, i32 0, i32 0
  %39 = extractvalue { i64, ptr } %37, 0
  store i64 %39, ptr %38, align 8
  %40 = getelementptr inbounds nuw { i64, ptr }, ptr %6, i32 0, i32 1
  %41 = extractvalue { i64, ptr } %37, 1
  store ptr %41, ptr %40, align 8
  %42 = getelementptr inbounds nuw { i64, ptr }, ptr %6, i32 0, i32 0
  %43 = load i64, ptr %42, align 8
  %44 = getelementptr inbounds nuw { i64, ptr }, ptr %6, i32 0, i32 1
  %45 = load ptr, ptr %44, align 8
  %46 = call i32 @jv_object_length(i64 %43, ptr %45)
  store i32 %46, ptr %5, align 4, !tbaa !10
  call void @llvm.lifetime.start.p0(i64 8, ptr %7) #6
  %47 = load i32, ptr %5, align 4, !tbaa !10
  %48 = sext i32 %47 to i64
  %49 = call ptr @jv_mem_calloc(i64 noundef %48, i64 noundef 16)
  store ptr %49, ptr %7, align 8, !tbaa !30
  call void @llvm.lifetime.start.p0(i64 4, ptr %8) #6
  store i32 0, ptr %8, align 4, !tbaa !10
  call void @llvm.lifetime.start.p0(i64 4, ptr %9) #6
  %50 = getelementptr inbounds nuw { i64, ptr }, ptr %4, i32 0, i32 0
  %51 = load i64, ptr %50, align 8
  %52 = getelementptr inbounds nuw { i64, ptr }, ptr %4, i32 0, i32 1
  %53 = load ptr, ptr %52, align 8
  %54 = call i32 @jv_object_iter(i64 %51, ptr %53)
  store i32 %54, ptr %9, align 4, !tbaa !10
  call void @llvm.lifetime.start.p0(i64 4, ptr %10) #6
  store i32 1, ptr %10, align 4, !tbaa !10
  br label %55

55:                                               ; preds = %112, %32
  %56 = load i32, ptr %10, align 4, !tbaa !10
  %57 = icmp ne i32 %56, 0
  br i1 %57, label %59, label %58

58:                                               ; preds = %55
  store i32 2, ptr %11, align 4
  call void @llvm.lifetime.end.p0(i64 4, ptr %10) #6
  call void @llvm.lifetime.end.p0(i64 4, ptr %9) #6
  br label %113

59:                                               ; preds = %55
  call void @llvm.lifetime.start.p0(i64 16, ptr %12) #6
  call void @llvm.lifetime.start.p0(i64 16, ptr %13) #6
  br label %60

60:                                               ; preds = %104, %59
  %61 = load i32, ptr %9, align 4, !tbaa !10
  %62 = getelementptr inbounds nuw { i64, ptr }, ptr %4, i32 0, i32 0
  %63 = load i64, ptr %62, align 8
  %64 = getelementptr inbounds nuw { i64, ptr }, ptr %4, i32 0, i32 1
  %65 = load ptr, ptr %64, align 8
  %66 = call i32 @jv_object_iter_valid(i64 %63, ptr %65, i32 noundef %61)
  %67 = icmp ne i32 %66, 0
  store i1 false, ptr %15, align 1
  store i1 false, ptr %17, align 1
  br i1 %67, label %68, label %89

68:                                               ; preds = %60
  call void @llvm.lifetime.start.p0(i64 16, ptr %14) #6
  store i1 true, ptr %15, align 1
  %69 = load i32, ptr %9, align 4, !tbaa !10
  %70 = getelementptr inbounds nuw { i64, ptr }, ptr %4, i32 0, i32 0
  %71 = load i64, ptr %70, align 8
  %72 = getelementptr inbounds nuw { i64, ptr }, ptr %4, i32 0, i32 1
  %73 = load ptr, ptr %72, align 8
  %74 = call { i64, ptr } @jv_object_iter_key(i64 %71, ptr %73, i32 noundef %69)
  %75 = getelementptr inbounds nuw { i64, ptr }, ptr %14, i32 0, i32 0
  %76 = extractvalue { i64, ptr } %74, 0
  store i64 %76, ptr %75, align 8
  %77 = getelementptr inbounds nuw { i64, ptr }, ptr %14, i32 0, i32 1
  %78 = extractvalue { i64, ptr } %74, 1
  store ptr %78, ptr %77, align 8
  call void @llvm.memcpy.p0.p0.i64(ptr align 8 %12, ptr align 8 %14, i64 16, i1 false), !tbaa.struct !4
  call void @llvm.lifetime.end.p0(i64 16, ptr %14) #6
  call void @llvm.lifetime.start.p0(i64 16, ptr %16) #6
  store i1 true, ptr %17, align 1
  %79 = load i32, ptr %9, align 4, !tbaa !10
  %80 = getelementptr inbounds nuw { i64, ptr }, ptr %4, i32 0, i32 0
  %81 = load i64, ptr %80, align 8
  %82 = getelementptr inbounds nuw { i64, ptr }, ptr %4, i32 0, i32 1
  %83 = load ptr, ptr %82, align 8
  %84 = call { i64, ptr } @jv_object_iter_value(i64 %81, ptr %83, i32 noundef %79)
  %85 = getelementptr inbounds nuw { i64, ptr }, ptr %16, i32 0, i32 0
  %86 = extractvalue { i64, ptr } %84, 0
  store i64 %86, ptr %85, align 8
  %87 = getelementptr inbounds nuw { i64, ptr }, ptr %16, i32 0, i32 1
  %88 = extractvalue { i64, ptr } %84, 1
  store ptr %88, ptr %87, align 8
  call void @llvm.memcpy.p0.p0.i64(ptr align 8 %13, ptr align 8 %16, i64 16, i1 false), !tbaa.struct !4
  call void @llvm.lifetime.end.p0(i64 16, ptr %16) #6
  br label %90

89:                                               ; preds = %60
  br label %90

90:                                               ; preds = %89, %68
  %91 = phi i32 [ 1, %68 ], [ 0, %89 ]
  %92 = icmp ne i32 %91, 0
  br i1 %92, label %94, label %93

93:                                               ; preds = %90
  store i32 5, ptr %11, align 4
  call void @llvm.lifetime.end.p0(i64 16, ptr %13) #6
  call void @llvm.lifetime.end.p0(i64 16, ptr %12) #6
  br label %111

94:                                               ; preds = %90
  %95 = load ptr, ptr %7, align 8, !tbaa !30
  %96 = load i32, ptr %8, align 4, !tbaa !10
  %97 = add nsw i32 %96, 1
  store i32 %97, ptr %8, align 4, !tbaa !10
  %98 = sext i32 %96 to i64
  %99 = getelementptr inbounds %struct.jv, ptr %95, i64 %98
  call void @llvm.memcpy.p0.p0.i64(ptr align 8 %99, ptr align 8 %12, i64 16, i1 false), !tbaa.struct !4
  %100 = getelementptr inbounds nuw { i64, ptr }, ptr %13, i32 0, i32 0
  %101 = load i64, ptr %100, align 8
  %102 = getelementptr inbounds nuw { i64, ptr }, ptr %13, i32 0, i32 1
  %103 = load ptr, ptr %102, align 8
  call void @jv_free(i64 %101, ptr %103)
  br label %104

104:                                              ; preds = %94
  %105 = load i32, ptr %9, align 4, !tbaa !10
  %106 = getelementptr inbounds nuw { i64, ptr }, ptr %4, i32 0, i32 0
  %107 = load i64, ptr %106, align 8
  %108 = getelementptr inbounds nuw { i64, ptr }, ptr %4, i32 0, i32 1
  %109 = load ptr, ptr %108, align 8
  %110 = call i32 @jv_object_iter_next(i64 %107, ptr %109, i32 noundef %105)
  store i32 %110, ptr %9, align 4, !tbaa !10
  br label %60, !llvm.loop !31

111:                                              ; preds = %93
  br label %112

112:                                              ; preds = %111
  store i32 0, ptr %10, align 4, !tbaa !10
  br label %55, !llvm.loop !32

113:                                              ; preds = %58
  %114 = load ptr, ptr %7, align 8, !tbaa !30
  %115 = load i32, ptr %5, align 4, !tbaa !10
  %116 = sext i32 %115 to i64
  call void @qsort(ptr noundef %114, i64 noundef %116, i64 noundef 16, ptr noundef @string_cmp)
  %117 = load i32, ptr %5, align 4, !tbaa !10
  %118 = call { i64, ptr } @jv_array_sized(i32 noundef %117)
  %119 = getelementptr inbounds nuw { i64, ptr }, ptr %3, i32 0, i32 0
  %120 = extractvalue { i64, ptr } %118, 0
  store i64 %120, ptr %119, align 8
  %121 = getelementptr inbounds nuw { i64, ptr }, ptr %3, i32 0, i32 1
  %122 = extractvalue { i64, ptr } %118, 1
  store ptr %122, ptr %121, align 8
  call void @llvm.lifetime.start.p0(i64 4, ptr %18) #6
  store i32 0, ptr %18, align 4, !tbaa !10
  br label %123

123:                                              ; preds = %146, %113
  %124 = load i32, ptr %18, align 4, !tbaa !10
  %125 = load i32, ptr %5, align 4, !tbaa !10
  %126 = icmp slt i32 %124, %125
  br i1 %126, label %128, label %127

127:                                              ; preds = %123
  store i32 8, ptr %11, align 4
  call void @llvm.lifetime.end.p0(i64 4, ptr %18) #6
  br label %149

128:                                              ; preds = %123
  call void @llvm.lifetime.start.p0(i64 16, ptr %19) #6
  %129 = load ptr, ptr %7, align 8, !tbaa !30
  %130 = load i32, ptr %18, align 4, !tbaa !10
  %131 = sext i32 %130 to i64
  %132 = getelementptr inbounds %struct.jv, ptr %129, i64 %131
  %133 = getelementptr inbounds nuw { i64, ptr }, ptr %3, i32 0, i32 0
  %134 = load i64, ptr %133, align 8
  %135 = getelementptr inbounds nuw { i64, ptr }, ptr %3, i32 0, i32 1
  %136 = load ptr, ptr %135, align 8
  %137 = getelementptr inbounds nuw { i64, ptr }, ptr %132, i32 0, i32 0
  %138 = load i64, ptr %137, align 8
  %139 = getelementptr inbounds nuw { i64, ptr }, ptr %132, i32 0, i32 1
  %140 = load ptr, ptr %139, align 8
  %141 = call { i64, ptr } @jv_array_append(i64 %134, ptr %136, i64 %138, ptr %140)
  %142 = getelementptr inbounds nuw { i64, ptr }, ptr %19, i32 0, i32 0
  %143 = extractvalue { i64, ptr } %141, 0
  store i64 %143, ptr %142, align 8
  %144 = getelementptr inbounds nuw { i64, ptr }, ptr %19, i32 0, i32 1
  %145 = extractvalue { i64, ptr } %141, 1
  store ptr %145, ptr %144, align 8
  call void @llvm.memcpy.p0.p0.i64(ptr align 8 %3, ptr align 8 %19, i64 16, i1 false), !tbaa.struct !4
  call void @llvm.lifetime.end.p0(i64 16, ptr %19) #6
  br label %146

146:                                              ; preds = %128
  %147 = load i32, ptr %18, align 4, !tbaa !10
  %148 = add nsw i32 %147, 1
  store i32 %148, ptr %18, align 4, !tbaa !10
  br label %123, !llvm.loop !33

149:                                              ; preds = %127
  %150 = load ptr, ptr %7, align 8, !tbaa !30
  call void @jv_mem_free(ptr noundef %150)
  %151 = getelementptr inbounds nuw { i64, ptr }, ptr %4, i32 0, i32 0
  %152 = load i64, ptr %151, align 8
  %153 = getelementptr inbounds nuw { i64, ptr }, ptr %4, i32 0, i32 1
  %154 = load ptr, ptr %153, align 8
  call void @jv_free(i64 %152, ptr %154)
  store i32 1, ptr %11, align 4
  call void @llvm.lifetime.end.p0(i64 4, ptr %8) #6
  call void @llvm.lifetime.end.p0(i64 8, ptr %7) #6
  call void @llvm.lifetime.end.p0(i64 4, ptr %5) #6
  br label %210

155:                                              ; preds = %2
  %156 = getelementptr inbounds nuw { i64, ptr }, ptr %4, i32 0, i32 0
  %157 = load i64, ptr %156, align 8
  %158 = getelementptr inbounds nuw { i64, ptr }, ptr %4, i32 0, i32 1
  %159 = load ptr, ptr %158, align 8
  %160 = call i32 @jv_get_kind(i64 %157, ptr %159)
  %161 = icmp eq i32 %160, 6
  br i1 %161, label %162, label %204

162:                                              ; preds = %155
  call void @llvm.lifetime.start.p0(i64 4, ptr %20) #6
  %163 = getelementptr inbounds nuw { i64, ptr }, ptr %4, i32 0, i32 0
  %164 = load i64, ptr %163, align 8
  %165 = getelementptr inbounds nuw { i64, ptr }, ptr %4, i32 0, i32 1
  %166 = load ptr, ptr %165, align 8
  %167 = call i32 @jv_array_length(i64 %164, ptr %166)
  store i32 %167, ptr %20, align 4, !tbaa !10
  %168 = call { i64, ptr } @jv_array()
  %169 = getelementptr inbounds nuw { i64, ptr }, ptr %3, i32 0, i32 0
  %170 = extractvalue { i64, ptr } %168, 0
  store i64 %170, ptr %169, align 8
  %171 = getelementptr inbounds nuw { i64, ptr }, ptr %3, i32 0, i32 1
  %172 = extractvalue { i64, ptr } %168, 1
  store ptr %172, ptr %171, align 8
  call void @llvm.lifetime.start.p0(i64 4, ptr %21) #6
  store i32 0, ptr %21, align 4, !tbaa !10
  br label %173

173:                                              ; preds = %200, %162
  %174 = load i32, ptr %21, align 4, !tbaa !10
  %175 = load i32, ptr %20, align 4, !tbaa !10
  %176 = icmp slt i32 %174, %175
  br i1 %176, label %178, label %177

177:                                              ; preds = %173
  store i32 11, ptr %11, align 4
  call void @llvm.lifetime.end.p0(i64 4, ptr %21) #6
  br label %203

178:                                              ; preds = %173
  call void @llvm.lifetime.start.p0(i64 16, ptr %22) #6
  %179 = load i32, ptr %21, align 4, !tbaa !10
  %180 = load i32, ptr %21, align 4, !tbaa !10
  %181 = sitofp i32 %180 to double
  %182 = call { i64, ptr } @jv_number(double noundef %181)
  %183 = getelementptr inbounds nuw { i64, ptr }, ptr %23, i32 0, i32 0
  %184 = extractvalue { i64, ptr } %182, 0
  store i64 %184, ptr %183, align 8
  %185 = getelementptr inbounds nuw { i64, ptr }, ptr %23, i32 0, i32 1
  %186 = extractvalue { i64, ptr } %182, 1
  store ptr %186, ptr %185, align 8
  %187 = getelementptr inbounds nuw { i64, ptr }, ptr %3, i32 0, i32 0
  %188 = load i64, ptr %187, align 8
  %189 = getelementptr inbounds nuw { i64, ptr }, ptr %3, i32 0, i32 1
  %190 = load ptr, ptr %189, align 8
  %191 = getelementptr inbounds nuw { i64, ptr }, ptr %23, i32 0, i32 0
  %192 = load i64, ptr %191, align 8
  %193 = getelementptr inbounds nuw { i64, ptr }, ptr %23, i32 0, i32 1
  %194 = load ptr, ptr %193, align 8
  %195 = call { i64, ptr } @jv_array_set(i64 %188, ptr %190, i32 noundef %179, i64 %192, ptr %194)
  %196 = getelementptr inbounds nuw { i64, ptr }, ptr %22, i32 0, i32 0
  %197 = extractvalue { i64, ptr } %195, 0
  store i64 %197, ptr %196, align 8
  %198 = getelementptr inbounds nuw { i64, ptr }, ptr %22, i32 0, i32 1
  %199 = extractvalue { i64, ptr } %195, 1
  store ptr %199, ptr %198, align 8
  call void @llvm.memcpy.p0.p0.i64(ptr align 8 %3, ptr align 8 %22, i64 16, i1 false), !tbaa.struct !4
  call void @llvm.lifetime.end.p0(i64 16, ptr %22) #6
  br label %200

200:                                              ; preds = %178
  %201 = load i32, ptr %21, align 4, !tbaa !10
  %202 = add nsw i32 %201, 1
  store i32 %202, ptr %21, align 4, !tbaa !10
  br label %173, !llvm.loop !34

203:                                              ; preds = %177
  store i32 1, ptr %11, align 4
  call void @llvm.lifetime.end.p0(i64 4, ptr %20) #6
  br label %210

204:                                              ; preds = %155
  %205 = call { i64, ptr } @jv_invalid()
  %206 = getelementptr inbounds nuw { i64, ptr }, ptr %3, i32 0, i32 0
  %207 = extractvalue { i64, ptr } %205, 0
  store i64 %207, ptr %206, align 8
  %208 = getelementptr inbounds nuw { i64, ptr }, ptr %3, i32 0, i32 1
  %209 = extractvalue { i64, ptr } %205, 1
  store ptr %209, ptr %208, align 8
  br label %210

210:                                              ; preds = %204, %203, %149
  %211 = load { i64, ptr }, ptr %3, align 8
  ret { i64, ptr } %211
}