; Function Attrs: nounwind uwtable
define dso_local { i64, ptr } @jv_keys(i64 %0, ptr %1) local_unnamed_addr #0 {
  %3 = tail call i32 @jv_get_kind(i64 %0, ptr %1) #6
  %4 = icmp eq i32 %3, 7
  br i1 %4, label %.preheader, label %29

.preheader:                                       ; preds = %2
  %5 = tail call { i64, ptr } @jv_copy(i64 %0, ptr %1) #6
  %6 = extractvalue { i64, ptr } %5, 0
  %7 = extractvalue { i64, ptr } %5, 1
  %8 = tail call i32 @jv_object_length(i64 %6, ptr %7) #6
  %9 = sext i32 %8 to i64
  %10 = tail call ptr @jv_mem_calloc(i64 noundef %9, i64 noundef 16) #6
  %11 = tail call i32 @jv_object_iter(i64 %0, ptr %1) #6
  %12 = tail call i32 @jv_object_iter_valid(i64 %0, ptr %1, i32 noundef %11) #6
  %.not6578 = icmp eq i32 %12, 0
  br i1 %.not6578, label %.loopexit, label %.lr.ph81

.loopexit:                                        ; preds = %.lr.ph81, %.preheader
  tail call void @qsort(ptr noundef %10, i64 noundef %9, i64 noundef 16, ptr noundef nonnull @string_cmp) #6
  %13 = tail call { i64, ptr } @jv_array_sized(i32 noundef %8) #6
  %14 = icmp sgt i32 %8, 0
  br i1 %14, label %.lr.ph88.preheader, label %._crit_edge

.lr.ph88.preheader:                               ; preds = %.loopexit
  %wide.trip.count = zext nneg i32 %8 to i64
  br label %.lr.ph88

.lr.ph81:                                         ; preds = %.preheader, %.lr.ph81
  %indvars.iv = phi i64 [ %indvars.iv.next, %.lr.ph81 ], [ 0, %.preheader ]
  %.15879 = phi i32 [ %22, %.lr.ph81 ], [ %11, %.preheader ]
  %15 = tail call { i64, ptr } @jv_object_iter_key(i64 %0, ptr %1, i32 noundef %.15879) #6
  %16 = extractvalue { i64, ptr } %15, 0
  %17 = extractvalue { i64, ptr } %15, 1
  %18 = tail call { i64, ptr } @jv_object_iter_value(i64 %0, ptr %1, i32 noundef %.15879) #6
  %19 = extractvalue { i64, ptr } %18, 0
  %20 = extractvalue { i64, ptr } %18, 1
  %indvars.iv.next = add nuw nsw i64 %indvars.iv, 1
  %21 = getelementptr inbounds nuw %struct.jv, ptr %10, i64 %indvars.iv
  store i64 %16, ptr %21, align 8
  %.sroa.418.0..sroa_idx = getelementptr inbounds nuw i8, ptr %21, i64 8
  store ptr %17, ptr %.sroa.418.0..sroa_idx, align 8, !tbaa !21
  tail call void @jv_free(i64 %19, ptr %20) #6
  %22 = tail call i32 @jv_object_iter_next(i64 %0, ptr %1, i32 noundef %.15879) #6
  %23 = tail call i32 @jv_object_iter_valid(i64 %0, ptr %1, i32 noundef %22) #6
  %.not65 = icmp eq i32 %23, 0
  br i1 %.not65, label %.loopexit, label %.lr.ph81, !llvm.loop !22

._crit_edge:                                      ; preds = %.lr.ph88, %.loopexit
  %.pn63.lcssa = phi { i64, ptr } [ %13, %.loopexit ], [ %28, %.lr.ph88 ]
  tail call void @jv_mem_free(ptr noundef %10) #6
  tail call void @jv_free(i64 %0, ptr %1) #6
  br label %.loopexit75

.lr.ph88:                                         ; preds = %.lr.ph88.preheader, %.lr.ph88
  %indvars.iv92 = phi i64 [ 0, %.lr.ph88.preheader ], [ %indvars.iv.next93, %.lr.ph88 ]
  %.pn6387 = phi { i64, ptr } [ %13, %.lr.ph88.preheader ], [ %28, %.lr.ph88 ]
  %.sroa.8.0 = extractvalue { i64, ptr } %.pn6387, 1
  %.sroa.053.0 = extractvalue { i64, ptr } %.pn6387, 0
  %24 = getelementptr inbounds nuw %struct.jv, ptr %10, i64 %indvars.iv92
  %25 = load i64, ptr %24, align 8
  %26 = getelementptr inbounds nuw i8, ptr %24, i64 8
  %27 = load ptr, ptr %26, align 8
  %28 = tail call { i64, ptr } @jv_array_append(i64 %.sroa.053.0, ptr %.sroa.8.0, i64 %25, ptr %27) #6
  %indvars.iv.next93 = add nuw nsw i64 %indvars.iv92, 1
  %exitcond95.not = icmp eq i64 %indvars.iv.next93, %wide.trip.count
  br i1 %exitcond95.not, label %._crit_edge, label %.lr.ph88, !llvm.loop !23

29:                                               ; preds = %2
  %30 = tail call i32 @jv_get_kind(i64 %0, ptr %1) #6
  %31 = icmp eq i32 %30, 6
  br i1 %31, label %32, label %42

32:                                               ; preds = %29
  %33 = tail call i32 @jv_array_length(i64 %0, ptr %1) #6
  %34 = tail call { i64, ptr } @jv_array() #6
  %35 = icmp sgt i32 %33, 0
  br i1 %35, label %.lr.ph, label %.loopexit75

.lr.ph:                                           ; preds = %32, %.lr.ph
  %.pn77 = phi { i64, ptr } [ %40, %.lr.ph ], [ %34, %32 ]
  %.05976 = phi i32 [ %41, %.lr.ph ], [ 0, %32 ]
  %.sroa.8.2 = extractvalue { i64, ptr } %.pn77, 1
  %.sroa.053.2 = extractvalue { i64, ptr } %.pn77, 0
  %36 = uitofp nneg i32 %.05976 to double
  %37 = tail call { i64, ptr } @jv_number(double noundef %36) #6
  %38 = extractvalue { i64, ptr } %37, 0
  %39 = extractvalue { i64, ptr } %37, 1
  %40 = tail call { i64, ptr } @jv_array_set(i64 %.sroa.053.2, ptr %.sroa.8.2, i32 noundef %.05976, i64 %38, ptr %39) #6
  %41 = add nuw nsw i32 %.05976, 1
  %exitcond.not = icmp eq i32 %41, %33
  br i1 %exitcond.not, label %.loopexit75, label %.lr.ph, !llvm.loop !24

42:                                               ; preds = %29
  %43 = tail call { i64, ptr } @jv_invalid() #6
  br label %.loopexit75

.loopexit75:                                      ; preds = %.lr.ph, %32, %42, %._crit_edge
  %.fca.1.insert.merged = phi { i64, ptr } [ %.pn63.lcssa, %._crit_edge ], [ %43, %42 ], [ %34, %32 ], [ %40, %.lr.ph ]
  ret { i64, ptr } %.fca.1.insert.merged
}